; Function Attrs: mustprogress uwtable
define void @_ZN3gmx18SelectionEvaluator13evaluateFinalEPNS_19SelectionCollectionEi(ptr nocapture noundef nonnull readnone align 1 dereferenceable(1) %0, ptr nocapture noundef readonly %1, i32 noundef %2) local_unnamed_addr #2 align 2 {
  %4 = load ptr, ptr %1, align 8
  %5 = getelementptr inbounds i8, ptr %4, i64 24
  %6 = load ptr, ptr %5, align 8
  %7 = getelementptr inbounds i8, ptr %4, i64 32
  %8 = load ptr, ptr %7, align 8
  %.not11 = icmp eq ptr %6, %8
  br i1 %.not11, label %._crit_edge, label %.lr.ph

.lr.ph:                                           ; preds = %3
  %9 = getelementptr inbounds i8, ptr %4, i64 64
  br label %10

10:                                               ; preds = %.lr.ph, %10
  %.sroa.08.012 = phi ptr [ %6, %.lr.ph ], [ %13, %10 ]
  %11 = load ptr, ptr %.sroa.08.012, align 8
  %12 = load ptr, ptr %9, align 8
  tail call void @_ZN3gmx8internal13SelectionData24restoreOriginalPositionsEPK10gmx_mtop_t(ptr noundef nonnull align 8 dereferenceable(294) %11, ptr noundef %12)
  tail call void @_ZN3gmx8internal13SelectionData29computeAverageCoveredFractionEi(ptr noundef nonnull align 8 dereferenceable(294) %11, i32 noundef %2)
  %13 = getelementptr inbounds i8, ptr %.sroa.08.012, i64 8
  %14 = load ptr, ptr %7, align 8
  %.not = icmp eq ptr %13, %14
  br i1 %.not, label %._crit_edge, label %10, !llvm.loop !23

._crit_edge:                                      ; preds = %10, %3
  ret void
}